; Function Attrs: mustprogress nounwind uwtable
define hidden noundef ptr @_ZN34ShenandoahLoadReferenceBarrierNode8IdentityEP8PhaseGVN(ptr noundef nonnull align 8 dereferenceable(64) %0, ptr noundef %1) unnamed_addr #0 align 2 {
  %3 = alloca %class.Unique_Node_List, align 8
  %4 = getelementptr inbounds i8, ptr %0, i64 8
  %5 = load ptr, ptr %4, align 8
  %6 = getelementptr inbounds i8, ptr %5, i64 8
  %7 = load ptr, ptr %6, align 8
  call void @llvm.lifetime.start.p0(i64 72, ptr nonnull %3)
  %8 = tail call align 8 ptr @llvm.threadlocal.address.p0(ptr align 8 @_ZN6Thread12_thr_currentE)
  %9 = load ptr, ptr %8, align 8
  %10 = getelementptr inbounds i8, ptr %9, i64 800
  %11 = load ptr, ptr %10, align 8
  store ptr %11, ptr %3, align 8
  %12 = getelementptr inbounds i8, ptr %3, i64 8
  store i32 4, ptr %12, align 8
  %13 = getelementptr inbounds i8, ptr %11, i64 40
  %14 = load ptr, ptr %13, align 8
  %15 = getelementptr inbounds i8, ptr %11, i64 32
  %16 = load ptr, ptr %15, align 8
  %17 = ptrtoint ptr %14 to i64
  %18 = ptrtoint ptr %16 to i64
  %19 = sub i64 %17, %18
  %.not.i.i.i.i.i.i = icmp ult i64 %19, 32
  br i1 %.not.i.i.i.i.i.i, label %22, label %20

20:                                               ; preds = %2
  %21 = getelementptr inbounds i8, ptr %16, i64 32
  store ptr %21, ptr %15, align 8
  br label %_ZN34ShenandoahLoadReferenceBarrierNode13needs_barrierEP8PhaseGVNP4Node.exit

22:                                               ; preds = %2
  %23 = tail call noundef ptr @_ZN5Arena4growEmN17AllocFailStrategy13AllocFailEnumE(ptr noundef nonnull align 8 dereferenceable(48) %11, i64 noundef 32, i32 noundef 0) #10
  br label %_ZN34ShenandoahLoadReferenceBarrierNode13needs_barrierEP8PhaseGVNP4Node.exit

_ZN34ShenandoahLoadReferenceBarrierNode13needs_barrierEP8PhaseGVNP4Node.exit: ; preds = %20, %22
  %.0.i.i.i.i.i.i = phi ptr [ %16, %20 ], [ %23, %22 ]
  %24 = getelementptr inbounds i8, ptr %3, i64 16
  store ptr %.0.i.i.i.i.i.i, ptr %24, align 8
  tail call void @llvm.memset.p0.i64(ptr noundef nonnull align 1 dereferenceable(32) %.0.i.i.i.i.i.i, i8 0, i64 32, i1 false)
  %25 = getelementptr inbounds i8, ptr %3, i64 24
  store i32 0, ptr %25, align 8
  %26 = getelementptr inbounds i8, ptr %3, i64 32
  call void @_ZN9VectorSetC1Ev(ptr noundef nonnull align 8 dereferenceable(32) %26) #10
  %27 = getelementptr inbounds i8, ptr %3, i64 64
  store i32 0, ptr %27, align 8
  %28 = call noundef zeroext i1 @_ZN34ShenandoahLoadReferenceBarrierNode18needs_barrier_implEP8PhaseGVNP4NodeR16Unique_Node_List(ptr noundef nonnull align 8 dereferenceable(64) %0, ptr noundef %1, ptr noundef %7, ptr noundef nonnull align 8 dereferenceable(68) %3)
  call void @llvm.lifetime.end.p0(i64 72, ptr nonnull %3)
  %. = select i1 %28, ptr %0, ptr %7
  ret ptr %.
}